target datalayout = "e-m:e-p270:32:32-p271:32:32-p272:64:64-i64:64-i128:128-f80:128-n8:16:32:64-S128"
target triple = "x86_64-pc-linux-gnu"

%"class.cv::Size_" = type { i32, i32 }
%"class.cv::Point_" = type { float, float }
%"class.cv::details::Ellipse" = type { %"class.cv::Point_", %"class.cv::Size_.23", float, float, float }
%"class.cv::Size_.23" = type { float, float }

@_ZN2cv7details7EllipseC1ERKNS_6Point_IfEERKNS_5Size_IfEEf = hidden unnamed_addr alias void (ptr, ptr, ptr, float), ptr @_ZN2cv7details7EllipseC2ERKNS_6Point_IfEERKNS_5Size_IfEEf

; Function Attrs: inlinehint mustprogress nounwind uwtable
define linkonce_odr hidden void @_ZN2cv5Size_IfEC2Eff(ptr noundef nonnull align 4 dereferenceable(8) %0, float noundef %1, float noundef %2) unnamed_addr #6 comdat align 2 {
  %4 = alloca ptr, align 8
  %5 = alloca float, align 4
  %6 = alloca float, align 4
  store ptr %0, ptr %4, align 8, !tbaa !198
  store float %1, ptr %5, align 4, !tbaa !7
  store float %2, ptr %6, align 4, !tbaa !7
  %7 = load ptr, ptr %4, align 8
  %8 = getelementptr inbounds nuw %"class.cv::Size_.23", ptr %7, i32 0, i32 0
  %9 = load float, ptr %5, align 4, !tbaa !7
  store float %9, ptr %8, align 4, !tbaa !200
  %10 = getelementptr inbounds nuw %"class.cv::Size_.23", ptr %7, i32 0, i32 1
  %11 = load float, ptr %6, align 4, !tbaa !7
  store float %11, ptr %10, align 4, !tbaa !201
  ret void
}

; Function Attrs: inlinehint mustprogress nounwind uwtable
define internal noundef float @_ZN2cvL13saturate_castIfEET_i(i32 noundef %0) #6 {
  %2 = alloca i32, align 4
  store i32 %0, ptr %2, align 4, !tbaa !3
  %3 = load i32, ptr %2, align 4, !tbaa !3
  %4 = sitofp i32 %3 to float
  ret float %4
}

; Function Attrs: inlinehint mustprogress nounwind uwtable
define internal noundef nonnull align 4 dereferenceable(8) ptr @_ZN2cvdVIfEERNS_6Point_IT_EES4_f(ptr noundef nonnull align 4 dereferenceable(8) %0, float noundef %1) #6 {
  %3 = alloca ptr, align 8
  %4 = alloca float, align 4
  store ptr %0, ptr %3, align 8, !tbaa !42
  store float %1, ptr %4, align 4, !tbaa !7
  %5 = load ptr, ptr %3, align 8, !tbaa !42
  %6 = getelementptr inbounds nuw %"class.cv::Point_", ptr %5, i32 0, i32 0
  %7 = load float, ptr %6, align 4, !tbaa !44
  %8 = load float, ptr %4, align 4, !tbaa !7
  %9 = fdiv float %7, %8
  %10 = call noundef float @_ZN2cvL13saturate_castIfEET_f(float noundef %9)
  %11 = load ptr, ptr %3, align 8, !tbaa !42
  %12 = getelementptr inbounds nuw %"class.cv::Point_", ptr %11, i32 0, i32 0
  store float %10, ptr %12, align 4, !tbaa !44
  %13 = load ptr, ptr %3, align 8, !tbaa !42
  %14 = getelementptr inbounds nuw %"class.cv::Point_", ptr %13, i32 0, i32 1
  %15 = load float, ptr %14, align 4, !tbaa !46
  %16 = load float, ptr %4, align 4, !tbaa !7
  %17 = fdiv float %15, %16
  %18 = call noundef float @_ZN2cvL13saturate_castIfEET_f(float noundef %17)
  %19 = load ptr, ptr %3, align 8, !tbaa !42
  %20 = getelementptr inbounds nuw %"class.cv::Point_", ptr %19, i32 0, i32 1
  store float %18, ptr %20, align 4, !tbaa !46
  %21 = load ptr, ptr %3, align 8, !tbaa !42
  ret ptr %21
}

; Function Attrs: inlinehint mustprogress nounwind uwtable
define linkonce_odr hidden void @_ZN2cv6Point_IfEC2Eff(ptr noundef nonnull align 4 dereferenceable(8) %0, float noundef %1, float noundef %2) unnamed_addr #6 comdat align 2 {
  %4 = alloca ptr, align 8
  %5 = alloca float, align 4
  %6 = alloca float, align 4
  store ptr %0, ptr %4, align 8, !tbaa !42
  store float %1, ptr %5, align 4, !tbaa !7
  store float %2, ptr %6, align 4, !tbaa !7
  %7 = load ptr, ptr %4, align 8
  %8 = getelementptr inbounds nuw %"class.cv::Point_", ptr %7, i32 0, i32 0
  %9 = load float, ptr %5, align 4, !tbaa !7
  store float %9, ptr %8, align 4, !tbaa !44
  %10 = getelementptr inbounds nuw %"class.cv::Point_", ptr %7, i32 0, i32 1
  %11 = load float, ptr %6, align 4, !tbaa !7
  store float %11, ptr %10, align 4, !tbaa !46
  ret void
}

; Function Attrs: inlinehint mustprogress nounwind uwtable
define internal noundef float @_ZN2cvL13saturate_castIfEET_f(float noundef %0) #6 {
  %2 = alloca float, align 4
  store float %0, ptr %2, align 4, !tbaa !7
  %3 = load float, ptr %2, align 4, !tbaa !7
  ret float %3
}

; Function Attrs: inlinehint mustprogress uwtable
define linkonce_odr hidden <2 x float> @_ZNK2cv5Size_IiEcvNS0_IT_EEIfEEv(ptr noundef nonnull align 4 dereferenceable(8) %0) #11 comdat align 2 {
  %2 = alloca %"class.cv::Size_.23", align 4
  %3 = alloca ptr, align 8
  store ptr %0, ptr %3, align 8, !tbaa !151
  %4 = load ptr, ptr %3, align 8
  %5 = getelementptr inbounds nuw %"class.cv::Size_", ptr %4, i32 0, i32 0
  %6 = load i32, ptr %5, align 4, !tbaa !35
  %7 = call noundef float @_ZN2cvL13saturate_castIfEET_i(i32 noundef %6)
  %8 = getelementptr inbounds nuw %"class.cv::Size_", ptr %4, i32 0, i32 1
  %9 = load i32, ptr %8, align 4, !tbaa !39
  %10 = call noundef float @_ZN2cvL13saturate_castIfEET_i(i32 noundef %9)
  call void @_ZN2cv5Size_IfEC2Eff(ptr noundef nonnull align 4 dereferenceable(8) %2, float noundef %7, float noundef %10)
  %11 = load <2 x float>, ptr %2, align 4
  ret <2 x float> %11
}

; Function Attrs: inlinehint mustprogress nounwind uwtable
define linkonce_odr hidden void @_ZN2cv5Size_IiEC2Eii(ptr noundef nonnull align 4 dereferenceable(8) %0, i32 noundef %1, i32 noundef %2) unnamed_addr #6 comdat align 2 {
  %4 = alloca ptr, align 8
  %5 = alloca i32, align 4
  %6 = alloca i32, align 4
  store ptr %0, ptr %4, align 8, !tbaa !151
  store i32 %1, ptr %5, align 4, !tbaa !3
  store i32 %2, ptr %6, align 4, !tbaa !3
  %7 = load ptr, ptr %4, align 8
  %8 = getelementptr inbounds nuw %"class.cv::Size_", ptr %7, i32 0, i32 0
  %9 = load i32, ptr %5, align 4, !tbaa !3
  store i32 %9, ptr %8, align 4, !tbaa !35
  %10 = getelementptr inbounds nuw %"class.cv::Size_", ptr %7, i32 0, i32 1
  %11 = load i32, ptr %6, align 4, !tbaa !3
  store i32 %11, ptr %10, align 4, !tbaa !39
  ret void
}

; Function Attrs: inlinehint mustprogress nounwind uwtable
define linkonce_odr noundef nonnull align 8 dereferenceable(8) ptr @_ZSt3maxIdERKT_S2_S2_(ptr noundef nonnull align 8 dereferenceable(8) %0, ptr noundef nonnull align 8 dereferenceable(8) %1) #6 comdat {
  %3 = alloca ptr, align 8
  %4 = alloca ptr, align 8
  %5 = alloca ptr, align 8
  store ptr %0, ptr %4, align 8, !tbaa !387
  store ptr %1, ptr %5, align 8, !tbaa !387
  %6 = load ptr, ptr %4, align 8, !tbaa !387
  %7 = load double, ptr %6, align 8, !tbaa !37
  %8 = load ptr, ptr %5, align 8, !tbaa !387
  %9 = load double, ptr %8, align 8, !tbaa !37
  %10 = fcmp olt double %7, %9
  br i1 %10, label %11, label %13

11:                                               ; preds = %2
  %12 = load ptr, ptr %5, align 8, !tbaa !387
  store ptr %12, ptr %3, align 8
  br label %15

13:                                               ; preds = %2
  %14 = load ptr, ptr %4, align 8, !tbaa !387
  store ptr %14, ptr %3, align 8
  br label %15

15:                                               ; preds = %13, %11
  %16 = load ptr, ptr %3, align 8
  ret ptr %16
}

; Function Attrs: inlinehint mustprogress nounwind uwtable
define linkonce_odr noundef nonnull align 4 dereferenceable(4) ptr @_ZSt3maxIfERKT_S2_S2_(ptr noundef nonnull align 4 dereferenceable(4) %0, ptr noundef nonnull align 4 dereferenceable(4) %1) #6 comdat {
  %3 = alloca ptr, align 8
  %4 = alloca ptr, align 8
  %5 = alloca ptr, align 8
  store ptr %0, ptr %4, align 8, !tbaa !67
  store ptr %1, ptr %5, align 8, !tbaa !67
  %6 = load ptr, ptr %4, align 8, !tbaa !67
  %7 = load float, ptr %6, align 4, !tbaa !7
  %8 = load ptr, ptr %5, align 8, !tbaa !67
  %9 = load float, ptr %8, align 4, !tbaa !7
  %10 = fcmp olt float %7, %9
  br i1 %10, label %11, label %13

11:                                               ; preds = %2
  %12 = load ptr, ptr %5, align 8, !tbaa !67
  store ptr %12, ptr %3, align 8
  br label %15

13:                                               ; preds = %2
  %14 = load ptr, ptr %4, align 8, !tbaa !67
  store ptr %14, ptr %3, align 8
  br label %15

15:                                               ; preds = %13, %11
  %16 = load ptr, ptr %3, align 8
  ret ptr %16
}

; Function Attrs: inlinehint mustprogress nounwind uwtable
define linkonce_odr noundef float @_ZSt4acosf(float noundef %0) #6 comdat {
  %2 = alloca float, align 4
  store float %0, ptr %2, align 4, !tbaa !7
  %3 = load float, ptr %2, align 4, !tbaa !7
  %4 = call float @acosf(float noundef %3) #3, !tbaa !3
  ret float %4
}

; Function Attrs: inlinehint mustprogress uwtable
define internal <2 x float> @_ZN2cvdvIfEENS_6Point_IT_EERKS3_f(ptr noundef nonnull align 4 dereferenceable(8) %0, float noundef %1) #11 {
  %3 = alloca %"class.cv::Point_", align 4
  %4 = alloca ptr, align 8
  %5 = alloca float, align 4
  store ptr %0, ptr %4, align 8, !tbaa !42
  store float %1, ptr %5, align 4, !tbaa !7
  %6 = load ptr, ptr %4, align 8, !tbaa !42
  call void @llvm.memcpy.p0.p0.i64(ptr align 4 %3, ptr align 4 %6, i64 8, i1 false), !tbaa.struct !41
  %7 = load float, ptr %5, align 4, !tbaa !7
  %8 = call noundef nonnull align 4 dereferenceable(8) ptr @_ZN2cvdVIfEERNS_6Point_IT_EES4_f(ptr noundef nonnull align 4 dereferenceable(8) %3, float noundef %7)
  %9 = load <2 x float>, ptr %3, align 4
  ret <2 x float> %9
}

; Function Attrs: inlinehint mustprogress nounwind uwtable
define internal noundef double @_ZN2cvL4normIfEEdRKNS_6Point_IT_EE(ptr noundef nonnull align 4 dereferenceable(8) %0) #6 {
  %2 = alloca ptr, align 8
  store ptr %0, ptr %2, align 8, !tbaa !42
  %3 = load ptr, ptr %2, align 8, !tbaa !42
  %4 = getelementptr inbounds nuw %"class.cv::Point_", ptr %3, i32 0, i32 0
  %5 = load float, ptr %4, align 4, !tbaa !44
  %6 = fpext float %5 to double
  %7 = load ptr, ptr %2, align 8, !tbaa !42
  %8 = getelementptr inbounds nuw %"class.cv::Point_", ptr %7, i32 0, i32 0
  %9 = load float, ptr %8, align 4, !tbaa !44
  %10 = fpext float %9 to double
  %11 = load ptr, ptr %2, align 8, !tbaa !42
  %12 = getelementptr inbounds nuw %"class.cv::Point_", ptr %11, i32 0, i32 1
  %13 = load float, ptr %12, align 4, !tbaa !46
  %14 = fpext float %13 to double
  %15 = load ptr, ptr %2, align 8, !tbaa !42
  %16 = getelementptr inbounds nuw %"class.cv::Point_", ptr %15, i32 0, i32 1
  %17 = load float, ptr %16, align 4, !tbaa !46
  %18 = fpext float %17 to double
  %19 = fmul double %14, %18
  %20 = call double @llvm.fmuladd.f64(double %6, double %10, double %19)
  %21 = call double @sqrt(double noundef %20) #3, !tbaa !3
  ret double %21
}

; Function Attrs: inlinehint mustprogress uwtable
define internal <2 x float> @_ZN2cvmiIfEENS_6Point_IT_EERKS3_S5_(ptr noundef nonnull align 4 dereferenceable(8) %0, ptr noundef nonnull align 4 dereferenceable(8) %1) #11 {
  %3 = alloca %"class.cv::Point_", align 4
  %4 = alloca ptr, align 8
  %5 = alloca ptr, align 8
  store ptr %0, ptr %4, align 8, !tbaa !42
  store ptr %1, ptr %5, align 8, !tbaa !42
  %6 = load ptr, ptr %4, align 8, !tbaa !42
  %7 = getelementptr inbounds nuw %"class.cv::Point_", ptr %6, i32 0, i32 0
  %8 = load float, ptr %7, align 4, !tbaa !44
  %9 = load ptr, ptr %5, align 8, !tbaa !42
  %10 = getelementptr inbounds nuw %"class.cv::Point_", ptr %9, i32 0, i32 0
  %11 = load float, ptr %10, align 4, !tbaa !44
  %12 = fsub float %8, %11
  %13 = call noundef float @_ZN2cvL13saturate_castIfEET_f(float noundef %12)
  %14 = load ptr, ptr %4, align 8, !tbaa !42
  %15 = getelementptr inbounds nuw %"class.cv::Point_", ptr %14, i32 0, i32 1
  %16 = load float, ptr %15, align 4, !tbaa !46
  %17 = load ptr, ptr %5, align 8, !tbaa !42
  %18 = getelementptr inbounds nuw %"class.cv::Point_", ptr %17, i32 0, i32 1
  %19 = load float, ptr %18, align 4, !tbaa !46
  %20 = fsub float %16, %19
  %21 = call noundef float @_ZN2cvL13saturate_castIfEET_f(float noundef %20)
  call void @_ZN2cv6Point_IfEC2Eff(ptr noundef nonnull align 4 dereferenceable(8) %3, float noundef %13, float noundef %21)
  %22 = load <2 x float>, ptr %3, align 4
  ret <2 x float> %22
}

; Function Attrs: inlinehint mustprogress nounwind uwtable
define linkonce_odr hidden void @_ZN2cv6Point_IfEC2Ev(ptr noundef nonnull align 4 dereferenceable(8) %0) unnamed_addr #6 comdat align 2 {
  %2 = alloca ptr, align 8
  store ptr %0, ptr %2, align 8, !tbaa !42
  %3 = load ptr, ptr %2, align 8
  %4 = getelementptr inbounds nuw %"class.cv::Point_", ptr %3, i32 0, i32 0
  store float 0.000000e+00, ptr %4, align 4, !tbaa !44
  %5 = getelementptr inbounds nuw %"class.cv::Point_", ptr %3, i32 0, i32 1
  store float 0.000000e+00, ptr %5, align 4, !tbaa !46
  ret void
}

; Function Attrs: mustprogress uwtable
define hidden noundef zeroext i1 @_ZN2cv7details10Chessboard5Board18estimateSearchAreaERKNS_6Point_IfEES6_S6_fRNS0_7EllipseEPS5_(ptr noundef nonnull align 4 dereferenceable(8) %0, ptr noundef nonnull align 4 dereferenceable(8) %1, ptr noundef nonnull align 4 dereferenceable(8) %2, float noundef %3, ptr noundef nonnull align 4 dereferenceable(28) %4, ptr noundef %5) #10 align 2 {
  %7 = alloca i1, align 1
  %8 = alloca ptr, align 8
  %9 = alloca ptr, align 8
  %10 = alloca ptr, align 8
  %11 = alloca float, align 4
  %12 = alloca ptr, align 8
  %13 = alloca ptr, align 8
  %14 = alloca %"class.cv::Point_", align 4
  %15 = alloca %"class.cv::Point_", align 4
  %16 = alloca i32, align 4
  %17 = alloca %"class.cv::Point_", align 4
  %18 = alloca %"class.cv::Point_", align 4
  %19 = alloca float, align 4
  %20 = alloca %"class.cv::Point_", align 4
  %21 = alloca float, align 4
  %22 = alloca %"class.cv::Point_", align 4
  %23 = alloca double, align 8
  %24 = alloca float, align 4
  %25 = alloca float, align 4
  %26 = alloca %"class.cv::details::Ellipse", align 4
  %27 = alloca %"class.cv::Size_.23", align 4
  %28 = alloca %"class.cv::Size_", align 4
  %29 = alloca double, align 8
  %30 = alloca double, align 8
  store ptr %0, ptr %8, align 8, !tbaa !42
  store ptr %1, ptr %9, align 8, !tbaa !42
  store ptr %2, ptr %10, align 8, !tbaa !42
  store float %3, ptr %11, align 4, !tbaa !7
  store ptr %4, ptr %12, align 8, !tbaa !191
  store ptr %5, ptr %13, align 8, !tbaa !42
  call void @llvm.lifetime.start.p0(i64 8, ptr %14) #3
  call void @_ZN2cv6Point_IfEC2Ev(ptr noundef nonnull align 4 dereferenceable(8) %14)
  call void @llvm.lifetime.start.p0(i64 8, ptr %15) #3
  call void @_ZN2cv6Point_IfEC2Ev(ptr noundef nonnull align 4 dereferenceable(8) %15)
  %31 = load ptr, ptr %13, align 8, !tbaa !42
  %32 = icmp ne ptr %31, null
  br i1 %32, label %33, label %43

33:                                               ; preds = %6
  %34 = load ptr, ptr %13, align 8, !tbaa !42
  %35 = load ptr, ptr %8, align 8, !tbaa !42
  %36 = load ptr, ptr %9, align 8, !tbaa !42
  %37 = load ptr, ptr %10, align 8, !tbaa !42
  %38 = call noundef zeroext i1 @_ZN2cv7details10Chessboard5Board13estimatePointERKNS_6Point_IfEES6_S6_S6_RS4_(ptr noundef nonnull align 4 dereferenceable(8) %34, ptr noundef nonnull align 4 dereferenceable(8) %35, ptr noundef nonnull align 4 dereferenceable(8) %36, ptr noundef nonnull align 4 dereferenceable(8) %37, ptr noundef nonnull align 4 dereferenceable(8) %14)
  br i1 %38, label %40, label %39

39:                                               ; preds = %33
  store i1 false, ptr %7, align 1
  store i32 1, ptr %16, align 4
  br label %89

40:                                               ; preds = %33
  call void @llvm.lifetime.start.p0(i64 8, ptr %17) #3
  %41 = load ptr, ptr %13, align 8, !tbaa !42
  %42 = call <2 x float> @_ZN2cvmiIfEENS_6Point_IT_EERKS3_S5_(ptr noundef nonnull align 4 dereferenceable(8) %14, ptr noundef nonnull align 4 dereferenceable(8) %41)
  store <2 x float> %42, ptr %17, align 4
  call void @llvm.memcpy.p0.p0.i64(ptr align 4 %15, ptr align 4 %17, i64 8, i1 false), !tbaa.struct !41
  call void @llvm.lifetime.end.p0(i64 8, ptr %17) #3
  br label %52

43:                                               ; preds = %6
  %44 = load ptr, ptr %8, align 8, !tbaa !42
  %45 = load ptr, ptr %9, align 8, !tbaa !42
  %46 = load ptr, ptr %10, align 8, !tbaa !42
  %47 = call noundef zeroext i1 @_ZN2cv7details10Chessboard5Board13estimatePointERKNS_6Point_IfEES6_S6_RS4_(ptr noundef nonnull align 4 dereferenceable(8) %44, ptr noundef nonnull align 4 dereferenceable(8) %45, ptr noundef nonnull align 4 dereferenceable(8) %46, ptr noundef nonnull align 4 dereferenceable(8) %14)
  br i1 %47, label %49, label %48

48:                                               ; preds = %43
  store i1 false, ptr %7, align 1
  store i32 1, ptr %16, align 4
  br label %89

49:                                               ; preds = %43
  call void @llvm.lifetime.start.p0(i64 8, ptr %18) #3
  %50 = load ptr, ptr %8, align 8, !tbaa !42
  %51 = call <2 x float> @_ZN2cvmiIfEENS_6Point_IT_EERKS3_S5_(ptr noundef nonnull align 4 dereferenceable(8) %14, ptr noundef nonnull align 4 dereferenceable(8) %50)
  store <2 x float> %51, ptr %18, align 4
  call void @llvm.memcpy.p0.p0.i64(ptr align 4 %15, ptr align 4 %18, i64 8, i1 false), !tbaa.struct !41
  call void @llvm.lifetime.end.p0(i64 8, ptr %18) #3
  br label %52

52:                                               ; preds = %49, %40
  call void @llvm.lifetime.start.p0(i64 4, ptr %19) #3
  %53 = call noundef double @_ZN2cvL4normIfEEdRKNS_6Point_IT_EE(ptr noundef nonnull align 4 dereferenceable(8) %15)
  %54 = fptrunc double %53 to float
  store float %54, ptr %19, align 4, !tbaa !7
  call void @llvm.lifetime.start.p0(i64 8, ptr %20) #3
  %55 = load float, ptr %19, align 4, !tbaa !7
  %56 = call <2 x float> @_ZN2cvdvIfEENS_6Point_IT_EERKS3_f(ptr noundef nonnull align 4 dereferenceable(8) %15, float noundef %55)
  store <2 x float> %56, ptr %20, align 4
  call void @llvm.memcpy.p0.p0.i64(ptr align 4 %15, ptr align 4 %20, i64 8, i1 false), !tbaa.struct !41
  call void @llvm.lifetime.end.p0(i64 8, ptr %20) #3
  call void @llvm.lifetime.start.p0(i64 4, ptr %21) #3
  %57 = getelementptr inbounds nuw %"class.cv::Point_", ptr %15, i32 0, i32 0
  %58 = load float, ptr %57, align 4, !tbaa !44
  %59 = call noundef float @_ZSt4acosf(float noundef %58)
  store float %59, ptr %21, align 4, !tbaa !7
  %60 = getelementptr inbounds nuw %"class.cv::Point_", ptr %15, i32 0, i32 1
  %61 = load float, ptr %60, align 4, !tbaa !46
  %62 = fcmp ogt float %61, 0.000000e+00
  br i1 %62, label %63, label %68

63:                                               ; preds = %52
  %64 = load float, ptr %21, align 4, !tbaa !7
  %65 = fpext float %64 to double
  %66 = fsub double 0x401921FB54442D18, %65
  %67 = fptrunc double %66 to float
  store float %67, ptr %21, align 4, !tbaa !7
  br label %68

68:                                               ; preds = %63, %52
  call void @llvm.lifetime.start.p0(i64 8, ptr %22) #3
  %69 = load ptr, ptr %10, align 8, !tbaa !42
  %70 = call <2 x float> @_ZN2cvmiIfEENS_6Point_IT_EERKS3_S5_(ptr noundef nonnull align 4 dereferenceable(8) %14, ptr noundef nonnull align 4 dereferenceable(8) %69)
  store <2 x float> %70, ptr %22, align 4
  call void @llvm.memcpy.p0.p0.i64(ptr align 4 %15, ptr align 4 %22, i64 8, i1 false), !tbaa.struct !41
  call void @llvm.lifetime.end.p0(i64 8, ptr %22) #3
  %71 = call noundef double @_ZN2cvL4normIfEEdRKNS_6Point_IT_EE(ptr noundef nonnull align 4 dereferenceable(8) %15)
  %72 = fptrunc double %71 to float
  store float %72, ptr %19, align 4, !tbaa !7
  call void @llvm.lifetime.start.p0(i64 8, ptr %23) #3
  call void @llvm.lifetime.start.p0(i64 4, ptr %24) #3
  store float 3.000000e+00, ptr %24, align 4, !tbaa !7
  call void @llvm.lifetime.start.p0(i64 4, ptr %25) #3
  %73 = load float, ptr %11, align 4, !tbaa !7
  %74 = load float, ptr %19, align 4, !tbaa !7
  %75 = fmul float %73, %74
  store float %75, ptr %25, align 4, !tbaa !7
  %76 = call noundef nonnull align 4 dereferenceable(4) ptr @_ZSt3maxIfERKT_S2_S2_(ptr noundef nonnull align 4 dereferenceable(4) %24, ptr noundef nonnull align 4 dereferenceable(4) %25)
  %77 = load float, ptr %76, align 4, !tbaa !7
  %78 = fpext float %77 to double
  call void @llvm.lifetime.end.p0(i64 4, ptr %25) #3
  call void @llvm.lifetime.end.p0(i64 4, ptr %24) #3
  store double %78, ptr %23, align 8, !tbaa !37
  call void @llvm.lifetime.start.p0(i64 28, ptr %26) #3
  call void @llvm.lifetime.start.p0(i64 8, ptr %27) #3
  call void @llvm.lifetime.start.p0(i64 8, ptr %28) #3
  %79 = load double, ptr %23, align 8, !tbaa !37
  %80 = fptosi double %79 to i32
  call void @llvm.lifetime.start.p0(i64 8, ptr %29) #3
  store double 2.000000e+00, ptr %29, align 8, !tbaa !37
  call void @llvm.lifetime.start.p0(i64 8, ptr %30) #3
  %81 = load double, ptr %23, align 8, !tbaa !37
  %82 = fmul double %81, 0x3FD6666660000000
  store double %82, ptr %30, align 8, !tbaa !37
  %83 = call noundef nonnull align 8 dereferenceable(8) ptr @_ZSt3maxIdERKT_S2_S2_(ptr noundef nonnull align 8 dereferenceable(8) %29, ptr noundef nonnull align 8 dereferenceable(8) %30)
  %84 = load double, ptr %83, align 8, !tbaa !37
  %85 = fptosi double %84 to i32
  call void @_ZN2cv5Size_IiEC2Eii(ptr noundef nonnull align 4 dereferenceable(8) %28, i32 noundef %80, i32 noundef %85)
  %86 = call <2 x float> @_ZNK2cv5Size_IiEcvNS0_IT_EEIfEEv(ptr noundef nonnull align 4 dereferenceable(8) %28)
  store <2 x float> %86, ptr %27, align 4
  %87 = load float, ptr %21, align 4, !tbaa !7
  call void @_ZN2cv7details7EllipseC1ERKNS_6Point_IfEERKNS_5Size_IfEEf(ptr noundef nonnull align 4 dereferenceable(28) %26, ptr noundef nonnull align 4 dereferenceable(8) %14, ptr noundef nonnull align 4 dereferenceable(8) %27, float noundef %87)
  %88 = load ptr, ptr %12, align 8, !tbaa !191
  call void @llvm.memcpy.p0.p0.i64(ptr align 4 %88, ptr align 4 %26, i64 28, i1 false), !tbaa.struct !411
  call void @llvm.lifetime.end.p0(i64 8, ptr %30) #3
  call void @llvm.lifetime.end.p0(i64 8, ptr %29) #3
  call void @llvm.lifetime.end.p0(i64 8, ptr %28) #3
  call void @llvm.lifetime.end.p0(i64 8, ptr %27) #3
  call void @llvm.lifetime.end.p0(i64 28, ptr %26) #3
  store i1 true, ptr %7, align 1
  store i32 1, ptr %16, align 4
  call void @llvm.lifetime.end.p0(i64 8, ptr %23) #3
  call void @llvm.lifetime.end.p0(i64 4, ptr %21) #3
  call void @llvm.lifetime.end.p0(i64 4, ptr %19) #3
  br label %89

89:                                               ; preds = %68, %48, %39
  call void @llvm.lifetime.end.p0(i64 8, ptr %15) #3
  call void @llvm.lifetime.end.p0(i64 8, ptr %14) #3
  %90 = load i1, ptr %7, align 1
  ret i1 %90
}