; Function Attrs: mustprogress uwtable
define hidden noundef zeroext i1 @_ZN2cv7details10Chessboard5Board18estimateSearchAreaERKNS_6Point_IfEES6_S6_fRNS0_7EllipseEPS5_(ptr noundef nonnull readonly align 4 captures(none) dereferenceable(8) %0, ptr noundef nonnull readonly align 4 captures(none) dereferenceable(8) %1, ptr noundef nonnull readonly align 4 captures(none) dereferenceable(8) %2, float noundef %3, ptr noundef nonnull writeonly align 4 captures(none) dereferenceable(28) %4, ptr noundef readonly %5) local_unnamed_addr #8 align 2 {
  %7 = alloca %"class.cv::Point_", align 8
  call void @llvm.lifetime.start.p0(i64 8, ptr nonnull %7) #37
  store float 0.000000e+00, ptr %7, align 8, !tbaa !168
  %8 = getelementptr inbounds nuw i8, ptr %7, i64 4
  store float 0.000000e+00, ptr %8, align 4, !tbaa !169
  %.not = icmp eq ptr %5, null
  br i1 %.not, label %11, label %9

9:                                                ; preds = %6
  %10 = call noundef zeroext i1 @_ZN2cv7details10Chessboard5Board13estimatePointERKNS_6Point_IfEES6_S6_S6_RS4_(ptr noundef nonnull align 4 dereferenceable(8) %5, ptr noundef nonnull align 4 dereferenceable(8) %0, ptr noundef nonnull align 4 dereferenceable(8) %1, ptr noundef nonnull align 4 dereferenceable(8) %2, ptr noundef nonnull align 4 dereferenceable(8) %7)
  br i1 %10, label %13, label %50

11:                                               ; preds = %6
  %12 = call noundef zeroext i1 @_ZN2cv7details10Chessboard5Board13estimatePointERKNS_6Point_IfEES6_S6_RS4_(ptr noundef nonnull align 4 dereferenceable(8) %0, ptr noundef nonnull align 4 dereferenceable(8) %1, ptr noundef nonnull align 4 dereferenceable(8) %2, ptr noundef nonnull align 4 dereferenceable(8) %7)
  br i1 %12, label %13, label %50

13:                                               ; preds = %11, %9
  %.sink = phi ptr [ %5, %9 ], [ %0, %11 ]
  %.val28 = load float, ptr %7, align 8, !tbaa !168
  %.val29 = load float, ptr %8, align 4, !tbaa !169
  %.val30 = load float, ptr %.sink, align 4, !tbaa !168
  %14 = getelementptr i8, ptr %.sink, i64 4
  %.val31 = load float, ptr %14, align 4, !tbaa !169
  %15 = fsub float %.val28, %.val30
  %16 = fsub float %.val29, %.val31
  %17 = fpext float %15 to double
  %18 = fpext float %16 to double
  %19 = fmul double %18, %18
  %20 = tail call double @llvm.fmuladd.f64(double %17, double %17, double %19)
  %sqrt.i = tail call noundef double @llvm.sqrt.f64(double %20)
  %21 = fptrunc double %sqrt.i to float
  %22 = fdiv float %15, %21
  %23 = fdiv float %16, %21
  %24 = tail call noundef float @acosf(float noundef %22) #37, !tbaa !20
  %25 = fcmp ogt float %23, 0.000000e+00
  %26 = fpext float %24 to double
  %27 = fsub double 0x401921FB54442D18, %26
  %28 = fptrunc double %27 to float
  %.023 = select i1 %25, float %28, float %24
  %.val26 = load float, ptr %2, align 4, !tbaa !168
  %29 = getelementptr inbounds nuw i8, ptr %2, i64 4
  %.val27 = load float, ptr %29, align 4, !tbaa !169
  %30 = fsub float %.val28, %.val26
  %31 = fsub float %.val29, %.val27
  %32 = fpext float %30 to double
  %33 = fpext float %31 to double
  %34 = fmul double %33, %33
  %35 = tail call double @llvm.fmuladd.f64(double %32, double %32, double %34)
  %sqrt.i47 = tail call noundef double @llvm.sqrt.f64(double %35)
  %36 = fptrunc double %sqrt.i47 to float
  %37 = fmul float %3, %36
  %38 = fcmp ogt float %37, 3.000000e+00
  %.sroa.speculated55 = select i1 %38, float %37, float 3.000000e+00
  %39 = fpext float %.sroa.speculated55 to double
  %40 = fptosi float %.sroa.speculated55 to i32
  %41 = fmul double %39, 0x3FD6666660000000
  %42 = fcmp ogt double %41, 2.000000e+00
  %.sroa.speculated = select i1 %42, double %41, double 2.000000e+00
  %43 = fptosi double %.sroa.speculated to i32
  %44 = sitofp i32 %40 to float
  %45 = sitofp i32 %43 to float
  %.sroa.0.0.vec.insert.i49 = insertelement <2 x float> poison, float %44, i64 0
  %.sroa.0.4.vec.insert.i50 = insertelement <2 x float> %.sroa.0.0.vec.insert.i49, float %45, i64 1
  %46 = load i64, ptr %7, align 8
  %47 = fneg float %.023
  %48 = tail call noundef float @cosf(float noundef %47) #37, !tbaa !20
  %49 = tail call noundef float @sinf(float noundef %47) #37, !tbaa !20
  store i64 %46, ptr %4, align 4
  %.sroa.453.0..sroa_idx = getelementptr inbounds nuw i8, ptr %4, i64 8
  store <2 x float> %.sroa.0.4.vec.insert.i50, ptr %.sroa.453.0..sroa_idx, align 4
  %.sroa.5.0..sroa_idx = getelementptr inbounds nuw i8, ptr %4, i64 16
  store float %.023, ptr %.sroa.5.0..sroa_idx, align 4, !tbaa !19
  %.sroa.6.0..sroa_idx = getelementptr inbounds nuw i8, ptr %4, i64 20
  store float %48, ptr %.sroa.6.0..sroa_idx, align 4, !tbaa !19
  %.sroa.7.0..sroa_idx = getelementptr inbounds nuw i8, ptr %4, i64 24
  store float %49, ptr %.sroa.7.0..sroa_idx, align 4, !tbaa !19
  br label %50

50:                                               ; preds = %11, %9, %13
  %.0 = phi i1 [ true, %13 ], [ false, %9 ], [ false, %11 ]
  call void @llvm.lifetime.end.p0(i64 8, ptr nonnull %7) #37
  ret i1 %.0
}